; Function Attrs: inlinehint mustprogress nofree norecurse nosync nounwind willreturn memory(argmem: readwrite) uwtable
define internal void @_ZN2cv4rgbdL29calcICPEquationCoeffsRotationEPdRKNS_7Point3_IfEERKNS_3VecIfLi3EEE(ptr noundef writeonly captures(none) initializes((0, 24)) %0, ptr noundef nonnull readonly align 4 captures(none) dereferenceable(12) %1, ptr noundef nonnull readonly align 4 captures(none) dereferenceable(12) %2) unnamed_addr #17 {
  %4 = getelementptr inbounds nuw i8, ptr %1, i64 8
  %5 = load float, ptr %4, align 4, !tbaa !209
  %6 = fneg float %5
  %7 = getelementptr inbounds nuw i8, ptr %2, i64 4
  %8 = load float, ptr %7, align 4, !tbaa !122
  %9 = getelementptr inbounds nuw i8, ptr %1, i64 4
  %10 = load float, ptr %9, align 4, !tbaa !208
  %11 = getelementptr inbounds nuw i8, ptr %2, i64 8
  %12 = load float, ptr %11, align 4, !tbaa !122
  %13 = fmul float %10, %12
  %14 = tail call float @llvm.fmuladd.f32(float %6, float %8, float %13)
  %15 = fpext float %14 to double
  store double %15, ptr %0, align 8, !tbaa !154
  %16 = load float, ptr %2, align 4, !tbaa !122
  %17 = load float, ptr %1, align 4, !tbaa !206
  %18 = fneg float %12
  %19 = fmul float %17, %18
  %20 = tail call float @llvm.fmuladd.f32(float %5, float %16, float %19)
  %21 = fpext float %20 to double
  %22 = getelementptr inbounds nuw i8, ptr %0, i64 8
  store double %21, ptr %22, align 8, !tbaa !154
  %23 = fneg float %10
  %24 = fmul float %8, %17
  %25 = tail call float @llvm.fmuladd.f32(float %23, float %16, float %24)
  %26 = fpext float %25 to double
  %27 = getelementptr inbounds nuw i8, ptr %0, i64 16
  store double %26, ptr %27, align 8, !tbaa !154
  ret void
}